target datalayout = "e-m:e-p270:32:32-p271:32:32-p272:64:64-i64:64-i128:128-f80:128-n8:16:32:64-S128"
target triple = "x86_64-pc-linux-gnu"

%struct.ObjectAddress = type { i32, i32, i32 }
%struct.RelationData = type { %struct.RelFileLocator, ptr, i32, i32, i8, i8, i8, i8, i8, i32, i32, i32, i32, ptr, ptr, i32, %struct.LockInfoData, ptr, ptr, ptr, ptr, ptr, i8, ptr, ptr, ptr, ptr, ptr, ptr, i32, ptr, i8, ptr, ptr, i32, i8, i32, ptr, i8, ptr, ptr, ptr, ptr, ptr, ptr, ptr, i32, ptr, ptr, ptr, ptr, ptr, ptr, ptr, ptr, ptr, ptr, ptr, ptr, ptr, ptr, ptr, ptr, ptr, ptr, ptr, i32, i8, ptr }
%struct.RelFileLocator = type { i32, i32, i32 }
%struct.LockInfoData = type { %struct.LockRelId }
%struct.LockRelId = type { i32, i32 }
%struct.ForeignDataWrapper = type { i32, i32, ptr, i32, i32, ptr }
%struct.ForeignServer = type { i32, i32, i32, ptr, ptr, ptr, ptr }
%struct.CreateForeignTableStmt = type { %struct.CreateStmt, ptr, ptr }
%struct.CreateStmt = type { i32, ptr, ptr, ptr, ptr, ptr, ptr, ptr, ptr, ptr, i32, ptr, ptr, i8 }

; Function Attrs: inlinehint nounwind uwtable
define internal ptr @DatumGetPointer(i64 noundef %0) #6 {
  %2 = alloca i64, align 8
  store i64 %0, ptr %2, align 8
  %3 = load i64, ptr %2, align 8
  %4 = inttoptr i64 %3 to ptr
  ret ptr %4
}

; Function Attrs: inlinehint nounwind uwtable
define internal i64 @PointerGetDatum(ptr noundef %0) #6 {
  %2 = alloca ptr, align 8
  store ptr %0, ptr %2, align 8
  %3 = load ptr, ptr %2, align 8
  %4 = ptrtoint ptr %3 to i64
  ret i64 %4
}

; Function Attrs: inlinehint nounwind uwtable
define internal i64 @ObjectIdGetDatum(i32 noundef %0) #6 {
  %2 = alloca i32, align 4
  store i32 %0, ptr %2, align 4
  %3 = load i32, ptr %2, align 4
  %4 = zext i32 %3 to i64
  ret i64 %4
}

; Function Attrs: nounwind uwtable
define dso_local void @CreateForeignTable(ptr noundef %0, i32 noundef %1) #0 {
  %3 = alloca ptr, align 8
  %4 = alloca i32, align 4
  %5 = alloca ptr, align 8
  %6 = alloca i64, align 8
  %7 = alloca [3 x i64], align 16
  %8 = alloca [3 x i8], align 1
  %9 = alloca ptr, align 8
  %10 = alloca i32, align 4
  %11 = alloca %struct.ObjectAddress, align 4
  %12 = alloca %struct.ObjectAddress, align 4
  %13 = alloca i32, align 4
  %14 = alloca ptr, align 8
  %15 = alloca ptr, align 8
  store ptr %0, ptr %3, align 8
  store i32 %1, ptr %4, align 4
  call void @llvm.lifetime.start.p0(i64 8, ptr %5) #9
  call void @llvm.lifetime.start.p0(i64 8, ptr %6) #9
  call void @llvm.lifetime.start.p0(i64 24, ptr %7) #9
  call void @llvm.lifetime.start.p0(i64 3, ptr %8) #9
  call void @llvm.lifetime.start.p0(i64 8, ptr %9) #9
  call void @llvm.lifetime.start.p0(i64 4, ptr %10) #9
  call void @llvm.lifetime.start.p0(i64 12, ptr %11) #9
  call void @llvm.lifetime.start.p0(i64 12, ptr %12) #9
  call void @llvm.lifetime.start.p0(i64 4, ptr %13) #9
  call void @llvm.lifetime.start.p0(i64 8, ptr %14) #9
  call void @llvm.lifetime.start.p0(i64 8, ptr %15) #9
  call void @CommandCounterIncrement()
  %16 = call ptr @table_open(i32 noundef 3118, i32 noundef 3)
  store ptr %16, ptr %5, align 8
  %17 = call i32 @GetUserId()
  store i32 %17, ptr %13, align 4
  %18 = load ptr, ptr %3, align 8
  %19 = getelementptr inbounds nuw %struct.CreateForeignTableStmt, ptr %18, i32 0, i32 1
  %20 = load ptr, ptr %19, align 8
  %21 = call ptr @GetForeignServerByName(ptr noundef %20, i1 noundef zeroext false)
  store ptr %21, ptr %15, align 8
  %22 = load ptr, ptr %15, align 8
  %23 = getelementptr inbounds nuw %struct.ForeignServer, ptr %22, i32 0, i32 0
  %24 = load i32, ptr %23, align 8
  %25 = load i32, ptr %13, align 4
  %26 = call i32 @object_aclcheck(i32 noundef 1417, i32 noundef %24, i32 noundef %25, i64 noundef 256)
  store i32 %26, ptr %10, align 4
  %27 = load i32, ptr %10, align 4
  %28 = icmp ne i32 %27, 0
  br i1 %28, label %29, label %34

29:                                               ; preds = %2
  %30 = load i32, ptr %10, align 4
  %31 = load ptr, ptr %15, align 8
  %32 = getelementptr inbounds nuw %struct.ForeignServer, ptr %31, i32 0, i32 3
  %33 = load ptr, ptr %32, align 8
  call void @aclcheck_error(i32 noundef %30, i32 noundef 17, ptr noundef %33)
  br label %34

34:                                               ; preds = %29, %2
  %35 = load ptr, ptr %15, align 8
  %36 = getelementptr inbounds nuw %struct.ForeignServer, ptr %35, i32 0, i32 1
  %37 = load i32, ptr %36, align 4
  %38 = call ptr @GetForeignDataWrapper(i32 noundef %37)
  store ptr %38, ptr %14, align 8
  %39 = getelementptr inbounds [3 x i64], ptr %7, i64 0, i64 0
  call void @llvm.memset.p0.i64(ptr align 16 %39, i8 0, i64 24, i1 false)
  %40 = getelementptr inbounds [3 x i8], ptr %8, i64 0, i64 0
  call void @llvm.memset.p0.i64(ptr align 1 %40, i8 0, i64 3, i1 false)
  %41 = load i32, ptr %4, align 4
  %42 = call i64 @ObjectIdGetDatum(i32 noundef %41)
  %43 = getelementptr inbounds [3 x i64], ptr %7, i64 0, i64 0
  store i64 %42, ptr %43, align 16
  %44 = load ptr, ptr %15, align 8
  %45 = getelementptr inbounds nuw %struct.ForeignServer, ptr %44, i32 0, i32 0
  %46 = load i32, ptr %45, align 8
  %47 = call i64 @ObjectIdGetDatum(i32 noundef %46)
  %48 = getelementptr inbounds [3 x i64], ptr %7, i64 0, i64 1
  store i64 %47, ptr %48, align 8
  %49 = call i64 @PointerGetDatum(ptr noundef null)
  %50 = load ptr, ptr %3, align 8
  %51 = getelementptr inbounds nuw %struct.CreateForeignTableStmt, ptr %50, i32 0, i32 2
  %52 = load ptr, ptr %51, align 8
  %53 = load ptr, ptr %14, align 8
  %54 = getelementptr inbounds nuw %struct.ForeignDataWrapper, ptr %53, i32 0, i32 4
  %55 = load i32, ptr %54, align 4
  %56 = call i64 @transformGenericOptions(i32 noundef 3118, i64 noundef %49, ptr noundef %52, i32 noundef %55)
  store i64 %56, ptr %6, align 8
  %57 = load i64, ptr %6, align 8
  %58 = call ptr @DatumGetPointer(i64 noundef %57)
  %59 = icmp ne ptr %58, null
  br i1 %59, label %60, label %63

60:                                               ; preds = %34
  %61 = load i64, ptr %6, align 8
  %62 = getelementptr inbounds [3 x i64], ptr %7, i64 0, i64 2
  store i64 %61, ptr %62, align 16
  br label %65

63:                                               ; preds = %34
  %64 = getelementptr inbounds [3 x i8], ptr %8, i64 0, i64 2
  store i8 1, ptr %64, align 1
  br label %65

65:                                               ; preds = %63, %60
  %66 = load ptr, ptr %5, align 8
  %67 = getelementptr inbounds nuw %struct.RelationData, ptr %66, i32 0, i32 14
  %68 = load ptr, ptr %67, align 8
  %69 = getelementptr inbounds [3 x i64], ptr %7, i64 0, i64 0
  %70 = getelementptr inbounds [3 x i8], ptr %8, i64 0, i64 0
  %71 = call ptr @heap_form_tuple(ptr noundef %68, ptr noundef %69, ptr noundef %70)
  store ptr %71, ptr %9, align 8
  %72 = load ptr, ptr %5, align 8
  %73 = load ptr, ptr %9, align 8
  call void @CatalogTupleInsert(ptr noundef %72, ptr noundef %73)
  %74 = load ptr, ptr %9, align 8
  call void @heap_freetuple(ptr noundef %74)
  %75 = getelementptr inbounds nuw %struct.ObjectAddress, ptr %11, i32 0, i32 0
  store i32 1259, ptr %75, align 4
  %76 = load i32, ptr %4, align 4
  %77 = getelementptr inbounds nuw %struct.ObjectAddress, ptr %11, i32 0, i32 1
  store i32 %76, ptr %77, align 4
  %78 = getelementptr inbounds nuw %struct.ObjectAddress, ptr %11, i32 0, i32 2
  store i32 0, ptr %78, align 4
  %79 = getelementptr inbounds nuw %struct.ObjectAddress, ptr %12, i32 0, i32 0
  store i32 1417, ptr %79, align 4
  %80 = load ptr, ptr %15, align 8
  %81 = getelementptr inbounds nuw %struct.ForeignServer, ptr %80, i32 0, i32 0
  %82 = load i32, ptr %81, align 8
  %83 = getelementptr inbounds nuw %struct.ObjectAddress, ptr %12, i32 0, i32 1
  store i32 %82, ptr %83, align 4
  %84 = getelementptr inbounds nuw %struct.ObjectAddress, ptr %12, i32 0, i32 2
  store i32 0, ptr %84, align 4
  call void @recordDependencyOn(ptr noundef %11, ptr noundef %12, i32 noundef 110)
  %85 = load ptr, ptr %5, align 8
  call void @table_close(ptr noundef %85, i32 noundef 3)
  call void @llvm.lifetime.end.p0(i64 8, ptr %15) #9
  call void @llvm.lifetime.end.p0(i64 8, ptr %14) #9
  call void @llvm.lifetime.end.p0(i64 4, ptr %13) #9
  call void @llvm.lifetime.end.p0(i64 12, ptr %12) #9
  call void @llvm.lifetime.end.p0(i64 12, ptr %11) #9
  call void @llvm.lifetime.end.p0(i64 4, ptr %10) #9
  call void @llvm.lifetime.end.p0(i64 8, ptr %9) #9
  call void @llvm.lifetime.end.p0(i64 3, ptr %8) #9
  call void @llvm.lifetime.end.p0(i64 24, ptr %7) #9
  call void @llvm.lifetime.end.p0(i64 8, ptr %6) #9
  call void @llvm.lifetime.end.p0(i64 8, ptr %5) #9
  ret void
}