; Function Attrs: nounwind uwtable
define dso_local void @CreateForeignTable(ptr noundef readonly captures(none) %0, i32 noundef %1) local_unnamed_addr #0 {
  %3 = alloca [3 x i64], align 16
  %4 = alloca [3 x i8], align 1
  %5 = alloca %struct.ObjectAddress, align 4
  %6 = alloca %struct.ObjectAddress, align 4
  call void @llvm.lifetime.start.p0(i64 24, ptr nonnull %3) #9
  call void @llvm.lifetime.start.p0(i64 3, ptr nonnull %4) #9
  call void @llvm.lifetime.start.p0(i64 12, ptr nonnull %5) #9
  call void @llvm.lifetime.start.p0(i64 12, ptr nonnull %6) #9
  tail call void @CommandCounterIncrement() #9
  %7 = tail call ptr @table_open(i32 noundef 3118, i32 noundef 3) #9
  %8 = tail call i32 @GetUserId() #9
  %9 = getelementptr inbounds nuw i8, ptr %0, i64 112
  %10 = load ptr, ptr %9, align 8
  %11 = tail call ptr @GetForeignServerByName(ptr noundef %10, i1 noundef zeroext false) #9
  %12 = load i32, ptr %11, align 8
  %13 = tail call i32 @object_aclcheck(i32 noundef 1417, i32 noundef %12, i32 noundef %8, i64 noundef 256) #9
  %.not = icmp eq i32 %13, 0
  br i1 %.not, label %17, label %14

14:                                               ; preds = %2
  %15 = getelementptr inbounds nuw i8, ptr %11, i64 16
  %16 = load ptr, ptr %15, align 8
  tail call void @aclcheck_error(i32 noundef %13, i32 noundef 17, ptr noundef %16) #9
  br label %17

17:                                               ; preds = %14, %2
  %18 = getelementptr inbounds nuw i8, ptr %11, i64 4
  %19 = load i32, ptr %18, align 4
  %20 = tail call ptr @GetForeignDataWrapper(i32 noundef %19) #9
  %21 = getelementptr inbounds nuw i8, ptr %3, i64 16
  store i64 0, ptr %21, align 16
  call void @llvm.memset.p0.i64(ptr noundef nonnull align 1 dereferenceable(3) %4, i8 0, i64 3, i1 false)
  %22 = zext i32 %1 to i64
  store i64 %22, ptr %3, align 16
  %23 = load i32, ptr %11, align 8
  %24 = zext i32 %23 to i64
  %25 = getelementptr inbounds nuw i8, ptr %3, i64 8
  store i64 %24, ptr %25, align 8
  %26 = getelementptr inbounds nuw i8, ptr %0, i64 120
  %27 = load ptr, ptr %26, align 8
  %28 = getelementptr inbounds nuw i8, ptr %20, i64 20
  %29 = load i32, ptr %28, align 4
  %30 = tail call i64 @transformGenericOptions(i32 noundef 3118, i64 noundef 0, ptr noundef %27, i32 noundef %29)
  %.not19 = icmp eq i64 %30, 0
  br i1 %.not19, label %33, label %31

31:                                               ; preds = %17
  %32 = getelementptr inbounds nuw i8, ptr %3, i64 16
  store i64 %30, ptr %32, align 16
  br label %35

33:                                               ; preds = %17
  %34 = getelementptr inbounds nuw i8, ptr %4, i64 2
  store i8 1, ptr %34, align 1
  br label %35

35:                                               ; preds = %33, %31
  %36 = getelementptr inbounds nuw i8, ptr %7, i64 64
  %37 = load ptr, ptr %36, align 8
  %38 = call ptr @heap_form_tuple(ptr noundef %37, ptr noundef nonnull %3, ptr noundef nonnull %4) #9
  call void @CatalogTupleInsert(ptr noundef %7, ptr noundef %38) #9
  call void @heap_freetuple(ptr noundef %38) #9
  store i32 1259, ptr %5, align 4
  %39 = getelementptr inbounds nuw i8, ptr %5, i64 4
  store i32 %1, ptr %39, align 4
  %40 = getelementptr inbounds nuw i8, ptr %5, i64 8
  store i32 0, ptr %40, align 4
  store i32 1417, ptr %6, align 4
  %41 = load i32, ptr %11, align 8
  %42 = getelementptr inbounds nuw i8, ptr %6, i64 4
  store i32 %41, ptr %42, align 4
  %43 = getelementptr inbounds nuw i8, ptr %6, i64 8
  store i32 0, ptr %43, align 4
  call void @recordDependencyOn(ptr noundef nonnull %5, ptr noundef nonnull %6, i32 noundef 110) #9
  call void @table_close(ptr noundef %7, i32 noundef 3) #9
  call void @llvm.lifetime.end.p0(i64 12, ptr nonnull %6) #9
  call void @llvm.lifetime.end.p0(i64 12, ptr nonnull %5) #9
  call void @llvm.lifetime.end.p0(i64 3, ptr nonnull %4) #9
  call void @llvm.lifetime.end.p0(i64 24, ptr nonnull %3) #9
  ret void
}